target datalayout = "e-m:e-p270:32:32-p271:32:32-p272:64:64-i64:64-i128:128-f80:128-n8:16:32:64-S128"
target triple = "x86_64-pc-linux-gnu"

%class.LibRaw = type { ptr, %struct.libraw_data_t, ptr, %struct.libraw_internal_data_t, [2048 x %struct.decode], ptr, ptr, [10 x %struct.tiff_ifd_t], %class.libraw_memmgr, %struct.libraw_callbacks_t, { i64, i64 }, { i64, i64 }, { i64, i64 }, ptr, ptr, ptr, i64, ptr, ptr, ptr, ptr }
%struct.libraw_data_t = type { ptr, %struct.libraw_image_sizes_t, %struct.libraw_iparams_t, %struct.libraw_lensinfo_t, %struct.libraw_makernotes_t, %struct.libraw_shootinginfo_t, %struct.libraw_output_params_t, %struct.libraw_raw_unpack_params_t, i32, i32, %struct.libraw_colordata_t, %struct.libraw_imgother_t, %struct.libraw_thumbnail_t, %struct.libraw_thumbnail_list_t, %struct.libraw_rawdata_t, ptr }
%struct.libraw_image_sizes_t = type { i16, i16, i16, i16, i16, i16, i16, i16, i32, double, i32, [8 x [4 x i32]], i16, [2 x %struct.libraw_raw_inset_crop_t] }
%struct.libraw_raw_inset_crop_t = type { i16, i16, i16, i16 }
%struct.libraw_iparams_t = type { [4 x i8], [64 x i8], [64 x i8], [64 x i8], [64 x i8], [64 x i8], i32, i32, i32, i32, i32, i32, [6 x [6 x i8]], [6 x [6 x i8]], [5 x i8], i32, ptr }
%struct.libraw_lensinfo_t = type { float, float, float, float, float, [128 x i8], [128 x i8], [128 x i8], [128 x i8], i16, %struct.libraw_nikonlens_t, %struct.libraw_dnglens_t, %struct.libraw_makernotes_lens_t }
%struct.libraw_nikonlens_t = type { float, i8, i8, i8, i8 }
%struct.libraw_dnglens_t = type { float, float, float, float }
%struct.libraw_makernotes_lens_t = type { i64, [128 x i8], i16, i16, i64, i16, i16, [64 x i8], i16, [16 x i8], [16 x i8], float, float, float, float, float, float, float, float, float, float, float, float, float, float, float, i64, [128 x i8], i64, [128 x i8], i64, [128 x i8], i16, float }
%struct.libraw_makernotes_t = type { %struct.libraw_canon_makernotes_t, %struct.libraw_nikon_makernotes_t, %struct.libraw_hasselblad_makernotes_t, %struct.libraw_fuji_info_t, %struct.libraw_olympus_makernotes_t, %struct.libraw_sony_info_t, %struct.libraw_kodak_makernotes_t, %struct.libraw_panasonic_makernotes_t, %struct.libraw_pentax_makernotes_t, %struct.libraw_p1_makernotes_t, %struct.libraw_ricoh_makernotes_t, %struct.libraw_samsung_makernotes_t, %struct.libraw_metadata_common_t }
%struct.libraw_canon_makernotes_t = type { i32, i32, i32, i32, [4 x i32], i32, [4 x i32], i16, i16, i8, i16, i16, i16, i16, i16, i16, i16, i16, i16, i16, i16, i16, i16, i32, float, i16, i16, i16, i32, i16, i32, i32, i16, i32, %struct.libraw_area_t, %struct.libraw_area_t, %struct.libraw_area_t, %struct.libraw_area_t, %struct.libraw_area_t, [2 x i16] }
%struct.libraw_area_t = type { i16, i16, i16, i16 }
%struct.libraw_nikon_makernotes_t = type { double, i16, i16, [7 x i8], i8, i8, [13 x i8], [20 x i8], [4 x i8], [4 x i8], [4 x i8], i8, i8, i8, i8, i8, [2 x i8], i8, i8, i8, i8, i8, [4 x i8], [4 x i8], i8, i16, i32, i32, i32, i32, [4 x double], i8, i8, i8, i32, i32, i32, i8, [4 x i16], i16, %struct.libraw_sensor_highspeed_crop_t, i16, i16, i16, i32, [20 x i8], [20 x i8], i32, i16, double, double, double }
%struct.libraw_sensor_highspeed_crop_t = type { i16, i16, i16, i16 }
%struct.libraw_hasselblad_makernotes_t = type { i32, double, [8 x i8], [64 x i8], [64 x i8], i32, i32, i32, i32, [32 x i8], [64 x i8], i32, [2 x i32], [2 x i32], [4 x [3 x double]] }
%struct.libraw_fuji_info_t = type { float, i16, i16, i16, i16, i16, i16, i16, i16, [33 x i8], [33 x i8], float, i16, i16, [2 x i16], i16, i32, i32, i16, [3 x i16], i16, i16, i16, i16, i16, i32, i16, [13 x i8], [5 x i8], [5 x i8], i32, i16, i32, i16, [9 x i16], [32 x i32], i32, i32, i32, [2 x float], i32 }
%struct.libraw_olympus_makernotes_t = type { [6 x i8], i16, [2 x i32], [5 x i16], i16, [2 x i16], i16, i16, [64 x i32], [5 x double], i16, i8, [3 x i16], [3 x i32], i16, i16, i16, i16, double, [4 x i16], [2 x i32], i8, i32, i16, i16 }
%struct.libraw_sony_info_t = type { i16, i8, i8, i32, i8, i32, i8, i8, i16, [2 x i16], i8, i8, i16, [10 x i8], i8, i8, [4 x i16], i16, i8, i8, i8, i16, i32, i16, [2 x i16], i16, i16, i16, i16, i16, i16, i16, i32, float, i16, i32, i32, i16, [20 x i8], i32, i16, i32, i8, i8, i16, i16, i16, i16, i16, i16, i16, i16, i16, i32, i16, [16 x i8], float }
%struct.libraw_kodak_makernotes_t = type { i16, i16, i16, i16, i16, i16, [3 x [3 x float]], [3 x [3 x float]], [3 x [3 x float]], [3 x [3 x float]], [3 x [3 x float]], [3 x [3 x float]], i16, i16, i16, i16, float, float }
%struct.libraw_panasonic_makernotes_t = type { i16, i16, [8 x float], i32, float, [3 x i32], i16, i16, i32, i32 }
%struct.libraw_pentax_makernotes_t = type { [4 x i8], [2 x i16], [2 x i16], i16, i32, i32, i16, i16, i8, i8, i16 }
%struct.libraw_p1_makernotes_t = type { [64 x i8], [64 x i8], [256 x i8], [64 x i8] }
%struct.libraw_ricoh_makernotes_t = type { i16, [2 x i32], [2 x i32], i16, i32, i32, i32, i32, i16, i16, i16, i16, i16, i16, double, double }
%struct.libraw_samsung_makernotes_t = type { [4 x i32], [4 x i32], [2 x i32], [11 x i32], double, i32, [32 x i8] }
%struct.libraw_metadata_common_t = type { float, float, float, float, float, float, float, float, float, float, float, float, float, float, float, float, i16, [128 x i8], float, [4 x %struct.libraw_afinfo_item_t], i32 }
%struct.libraw_afinfo_item_t = type { i32, i16, i32, i32, ptr }
%struct.libraw_shootinginfo_t = type { i16, i16, i16, i16, i16, i16, i16, [64 x i8], [64 x i8] }
%struct.libraw_output_params_t = type { [4 x i32], [4 x i32], [4 x double], [6 x double], [4 x float], float, float, i32, i32, i32, i32, i32, i32, i32, ptr, ptr, ptr, ptr, i32, i32, i32, i32, i32, i32, [4 x i32], i32, i32, float, float, i32, i32, i32, i32, i32, i32, i32, i32, float, float, i32, i32 }
%struct.libraw_raw_unpack_params_t = type { i32, i32, i32, i32, i32, i32, i32, float, [5 x i8], ptr }
%struct.libraw_colordata_t = type { [65536 x i16], [4104 x i32], i32, i32, i32, [4 x i64], float, float, [8 x [8 x i16]], [4 x float], [4 x float], [3 x [4 x float]], [3 x [4 x float]], [3 x [4 x float]], [4 x [3 x float]], %struct.ph1_t, float, float, [64 x i8], [64 x i8], [64 x i8], [64 x i8], [17 x i8], [64 x i8], ptr, i32, [8 x i32], [2 x %struct.libraw_dng_color_t], %struct.libraw_dng_levels_t, [256 x [4 x i32]], [64 x [5 x float]], i32, [2 x %struct.libraw_P1_color_t], i32, i32 }
%struct.ph1_t = type { i32, i32, i32, i32, i32, i32, i32, i32, float }
%struct.libraw_dng_color_t = type { i32, i16, [4 x [4 x float]], [4 x [3 x float]], [3 x [4 x float]] }
%struct.libraw_dng_levels_t = type { i32, [4104 x i32], i32, [4104 x float], float, [4 x i32], [4 x i16], [4 x float], i32, [4 x float], [4 x float], float, float }
%struct.libraw_P1_color_t = type { [9 x float] }
%struct.libraw_imgother_t = type { float, float, float, float, i64, i32, [32 x i32], %struct.libraw_gps_info_t, [512 x i8], [64 x i8], [4 x float] }
%struct.libraw_gps_info_t = type { [3 x float], [3 x float], [3 x float], float, i8, i8, i8, i8, i8 }
%struct.libraw_thumbnail_t = type { i32, i16, i16, i32, i32, ptr }
%struct.libraw_thumbnail_list_t = type { i32, [8 x %struct.libraw_thumbnail_item_t] }
%struct.libraw_thumbnail_item_t = type { i32, i16, i16, i16, i32, i32, i64 }
%struct.libraw_rawdata_t = type { ptr, ptr, ptr, ptr, ptr, ptr, ptr, ptr, ptr, %struct.libraw_iparams_t, %struct.libraw_image_sizes_t, %struct.libraw_internal_output_params_t, %struct.libraw_colordata_t }
%struct.libraw_internal_output_params_t = type { i32, i32, i32, i16, i16 }
%struct.libraw_internal_data_t = type { %struct.internal_data_t, %struct.libraw_internal_output_params_t, %struct.output_data_t, %struct.identify_data_t, %struct.unpacker_data_t }
%struct.internal_data_t = type { ptr, ptr, i32, ptr, i64, i64, [4 x i32] }
%struct.output_data_t = type { ptr, ptr }
%struct.identify_data_t = type { i32, i64, i64, i32, i32, i32 }
%struct.unpacker_data_t = type { i16, [4 x i16], [3 x i16], i32, i64, i64, i64, i64, i64, i64, i32, i32, i32, i32, i32, i32, i32, i32, i32, i32, i32, i32, i32, i32, i32, i32, i32, i64, i32, i32, i32, i32, i32, i32, i32, i32, i32, %struct.pana8_tags_t, [16 x %struct.crx_data_header_t], i32, i32, i16, i16, i32, i32, i32, i32, i32, i32, i32, [20 x i32], i16 }
%struct.pana8_tags_t = type { [6 x i32], [6 x i16], i16, [4 x i16], [17 x i16], [17 x i16], [17 x i16], i16, i16, [5 x i64], [5 x i16], [5 x i32], [5 x i16], [5 x i16] }
%struct.crx_data_header_t = type { i32, i32, i32, i32, i32, i32, i32, i32, i32, i32, i32, i32, i32, i32, i32, i64, i32, ptr, i32, i32, i32, ptr, i32, ptr }
%struct.decode = type { [2 x ptr], i32 }
%struct.tiff_ifd_t = type { i32, i32, i32, i32, i32, i32, i32, i32, i32, i32, i32, i32, i32, i32, i32, ptr, i32, ptr, i32, i32, i32, i32, i32, i32, i32, float, i64, i64, i32, [2 x %struct.libraw_dng_color_t], %struct.libraw_dng_levels_t, i32 }
%class.libraw_memmgr = type <{ ptr, i32, [4 x i8] }>
%struct.libraw_callbacks_t = type { ptr, ptr, ptr, ptr, ptr, ptr, ptr, ptr, ptr, ptr, ptr, ptr, ptr, ptr, ptr, ptr, ptr }

; Function Attrs: mustprogress nounwind uwtable
define noundef i32 @_ZN6LibRaw15canon_600_colorEPii(ptr noundef nonnull align 8 dereferenceable(767680) %0, ptr noundef %1, i32 noundef %2) #0 align 2 {
  %4 = alloca i32, align 4
  %5 = alloca ptr, align 8
  %6 = alloca ptr, align 8
  %7 = alloca i32, align 4
  %8 = alloca i32, align 4
  %9 = alloca i32, align 4
  %10 = alloca i32, align 4
  %11 = alloca i32, align 4
  store ptr %0, ptr %5, align 8, !tbaa !6
  store ptr %1, ptr %6, align 8, !tbaa !21
  store i32 %2, ptr %7, align 4, !tbaa !11
  %12 = load ptr, ptr %5, align 8
  call void @llvm.lifetime.start.p0(i64 4, ptr %8) #6
  store i32 0, ptr %8, align 4, !tbaa !11
  call void @llvm.lifetime.start.p0(i64 4, ptr %9) #6
  call void @llvm.lifetime.start.p0(i64 4, ptr %10) #6
  %13 = getelementptr inbounds nuw %class.LibRaw, ptr %12, i32 0, i32 1
  %14 = getelementptr inbounds nuw %struct.libraw_data_t, ptr %13, i32 0, i32 10
  %15 = getelementptr inbounds nuw %struct.libraw_colordata_t, ptr %14, i32 0, i32 16
  %16 = load float, ptr %15, align 4, !tbaa !23
  %17 = fcmp reassoc nsz arcp contract afn une float %16, 0.000000e+00
  br i1 %17, label %18, label %35

18:                                               ; preds = %3
  %19 = load ptr, ptr %6, align 8, !tbaa !21
  %20 = getelementptr inbounds i32, ptr %19, i64 1
  %21 = load i32, ptr %20, align 4, !tbaa !11
  %22 = icmp slt i32 %21, -104
  br i1 %22, label %23, label %26

23:                                               ; preds = %18
  %24 = load ptr, ptr %6, align 8, !tbaa !21
  %25 = getelementptr inbounds i32, ptr %24, i64 1
  store i32 -104, ptr %25, align 4, !tbaa !11
  store i32 1, ptr %8, align 4, !tbaa !11
  br label %26

26:                                               ; preds = %23, %18
  %27 = load ptr, ptr %6, align 8, !tbaa !21
  %28 = getelementptr inbounds i32, ptr %27, i64 1
  %29 = load i32, ptr %28, align 4, !tbaa !11
  %30 = icmp sgt i32 %29, 12
  br i1 %30, label %31, label %34

31:                                               ; preds = %26
  %32 = load ptr, ptr %6, align 8, !tbaa !21
  %33 = getelementptr inbounds i32, ptr %32, i64 1
  store i32 12, ptr %33, align 4, !tbaa !11
  store i32 1, ptr %8, align 4, !tbaa !11
  br label %34

34:                                               ; preds = %31, %26
  br label %63

35:                                               ; preds = %3
  %36 = load ptr, ptr %6, align 8, !tbaa !21
  %37 = getelementptr inbounds i32, ptr %36, i64 1
  %38 = load i32, ptr %37, align 4, !tbaa !11
  %39 = icmp slt i32 %38, -264
  br i1 %39, label %45, label %40

40:                                               ; preds = %35
  %41 = load ptr, ptr %6, align 8, !tbaa !21
  %42 = getelementptr inbounds i32, ptr %41, i64 1
  %43 = load i32, ptr %42, align 4, !tbaa !11
  %44 = icmp sgt i32 %43, 461
  br i1 %44, label %45, label %46

45:                                               ; preds = %40, %35
  store i32 2, ptr %4, align 4
  store i32 1, ptr %11, align 4
  br label %136

46:                                               ; preds = %40
  %47 = load ptr, ptr %6, align 8, !tbaa !21
  %48 = getelementptr inbounds i32, ptr %47, i64 1
  %49 = load i32, ptr %48, align 4, !tbaa !11
  %50 = icmp slt i32 %49, -50
  br i1 %50, label %51, label %54

51:                                               ; preds = %46
  %52 = load ptr, ptr %6, align 8, !tbaa !21
  %53 = getelementptr inbounds i32, ptr %52, i64 1
  store i32 -50, ptr %53, align 4, !tbaa !11
  store i32 1, ptr %8, align 4, !tbaa !11
  br label %54

54:                                               ; preds = %51, %46
  %55 = load ptr, ptr %6, align 8, !tbaa !21
  %56 = getelementptr inbounds i32, ptr %55, i64 1
  %57 = load i32, ptr %56, align 4, !tbaa !11
  %58 = icmp sgt i32 %57, 307
  br i1 %58, label %59, label %62

59:                                               ; preds = %54
  %60 = load ptr, ptr %6, align 8, !tbaa !21
  %61 = getelementptr inbounds i32, ptr %60, i64 1
  store i32 307, ptr %61, align 4, !tbaa !11
  store i32 1, ptr %8, align 4, !tbaa !11
  br label %62

62:                                               ; preds = %59, %54
  br label %63

63:                                               ; preds = %62, %34
  %64 = getelementptr inbounds nuw %class.LibRaw, ptr %12, i32 0, i32 1
  %65 = getelementptr inbounds nuw %struct.libraw_data_t, ptr %64, i32 0, i32 10
  %66 = getelementptr inbounds nuw %struct.libraw_colordata_t, ptr %65, i32 0, i32 16
  %67 = load float, ptr %66, align 4, !tbaa !23
  %68 = fcmp reassoc nsz arcp contract afn une float %67, 0.000000e+00
  br i1 %68, label %74, label %69

69:                                               ; preds = %63
  %70 = load ptr, ptr %6, align 8, !tbaa !21
  %71 = getelementptr inbounds i32, ptr %70, i64 1
  %72 = load i32, ptr %71, align 4, !tbaa !11
  %73 = icmp slt i32 %72, 197
  br i1 %73, label %74, label %81

74:                                               ; preds = %69, %63
  %75 = load ptr, ptr %6, align 8, !tbaa !21
  %76 = getelementptr inbounds i32, ptr %75, i64 1
  %77 = load i32, ptr %76, align 4, !tbaa !11
  %78 = mul nsw i32 398, %77
  %79 = ashr i32 %78, 10
  %80 = sub nsw i32 -38, %79
  br label %88

81:                                               ; preds = %69
  %82 = load ptr, ptr %6, align 8, !tbaa !21
  %83 = getelementptr inbounds i32, ptr %82, i64 1
  %84 = load i32, ptr %83, align 4, !tbaa !11
  %85 = mul nsw i32 48, %84
  %86 = ashr i32 %85, 10
  %87 = add nsw i32 -123, %86
  br label %88

88:                                               ; preds = %81, %74
  %89 = phi i32 [ %80, %74 ], [ %87, %81 ]
  store i32 %89, ptr %9, align 4, !tbaa !11
  %90 = load i32, ptr %9, align 4, !tbaa !11
  %91 = load i32, ptr %7, align 4, !tbaa !11
  %92 = sub nsw i32 %90, %91
  %93 = load ptr, ptr %6, align 8, !tbaa !21
  %94 = getelementptr inbounds i32, ptr %93, i64 0
  %95 = load i32, ptr %94, align 4, !tbaa !11
  %96 = icmp sle i32 %92, %95
  br i1 %96, label %97, label %108

97:                                               ; preds = %88
  %98 = load i32, ptr %9, align 4, !tbaa !11
  %99 = add nsw i32 %98, 20
  %100 = load ptr, ptr %6, align 8, !tbaa !21
  %101 = getelementptr inbounds i32, ptr %100, i64 0
  %102 = load i32, ptr %101, align 4, !tbaa !11
  %103 = icmp sge i32 %99, %102
  br i1 %103, label %104, label %108

104:                                              ; preds = %97
  %105 = load i32, ptr %8, align 4, !tbaa !11
  %106 = icmp ne i32 %105, 0
  br i1 %106, label %108, label %107

107:                                              ; preds = %104
  store i32 0, ptr %4, align 4
  store i32 1, ptr %11, align 4
  br label %136

108:                                              ; preds = %104, %97, %88
  %109 = load i32, ptr %9, align 4, !tbaa !11
  %110 = load ptr, ptr %6, align 8, !tbaa !21
  %111 = getelementptr inbounds i32, ptr %110, i64 0
  %112 = load i32, ptr %111, align 4, !tbaa !11
  %113 = sub nsw i32 %109, %112
  store i32 %113, ptr %10, align 4, !tbaa !11
  %114 = load i32, ptr %10, align 4, !tbaa !11
  %115 = call i32 @llvm.abs.i32(i32 %114, i1 true)
  %116 = load i32, ptr %7, align 4, !tbaa !11
  %117 = mul nsw i32 %116, 4
  %118 = icmp sge i32 %115, %117
  br i1 %118, label %119, label %120

119:                                              ; preds = %108
  store i32 2, ptr %4, align 4
  store i32 1, ptr %11, align 4
  br label %136

120:                                              ; preds = %108
  %121 = load i32, ptr %10, align 4, !tbaa !11
  %122 = icmp slt i32 %121, -20
  br i1 %122, label %123, label %124

123:                                              ; preds = %120
  store i32 -20, ptr %10, align 4, !tbaa !11
  br label %124

124:                                              ; preds = %123, %120
  %125 = load i32, ptr %10, align 4, !tbaa !11
  %126 = load i32, ptr %7, align 4, !tbaa !11
  %127 = icmp sgt i32 %125, %126
  br i1 %127, label %128, label %130

128:                                              ; preds = %124
  %129 = load i32, ptr %7, align 4, !tbaa !11
  store i32 %129, ptr %10, align 4, !tbaa !11
  br label %130

130:                                              ; preds = %128, %124
  %131 = load i32, ptr %9, align 4, !tbaa !11
  %132 = load i32, ptr %10, align 4, !tbaa !11
  %133 = sub nsw i32 %131, %132
  %134 = load ptr, ptr %6, align 8, !tbaa !21
  %135 = getelementptr inbounds i32, ptr %134, i64 0
  store i32 %133, ptr %135, align 4, !tbaa !11
  store i32 1, ptr %4, align 4
  store i32 1, ptr %11, align 4
  br label %136

136:                                              ; preds = %130, %119, %107, %45
  call void @llvm.lifetime.end.p0(i64 4, ptr %10) #6
  call void @llvm.lifetime.end.p0(i64 4, ptr %9) #6
  call void @llvm.lifetime.end.p0(i64 4, ptr %8) #6
  %137 = load i32, ptr %4, align 4
  ret i32 %137
}