; Function Attrs: mustprogress nofree norecurse nosync nounwind willreturn memory(argmem: readwrite) uwtable
define noundef range(i32 0, 3) i32 @_ZN6LibRaw15canon_600_colorEPii(ptr noundef nonnull readonly align 8 captures(none) dereferenceable(767680) %0, ptr noundef captures(none) %1, i32 noundef %2) local_unnamed_addr #2 align 2 {
  %4 = getelementptr inbounds nuw i8, ptr %0, i64 153436
  %5 = load float, ptr %4, align 4, !tbaa !16
  %6 = fcmp reassoc nsz arcp contract afn une float %5, 0.000000e+00
  %7 = getelementptr inbounds nuw i8, ptr %1, i64 4
  %8 = load i32, ptr %7, align 4, !tbaa !77
  br i1 %6, label %9, label %13

9:                                                ; preds = %3
  %10 = icmp slt i32 %8, -104
  br i1 %10, label %.thread43.sink.split, label %11

11:                                               ; preds = %9
  %12 = icmp sgt i32 %8, 12
  br i1 %12, label %.thread43.sink.split, label %.thread43

13:                                               ; preds = %3
  %14 = add i32 %8, -462
  %or.cond39 = icmp ult i32 %14, -726
  br i1 %or.cond39, label %44, label %15

15:                                               ; preds = %13
  %16 = icmp slt i32 %8, -50
  br i1 %16, label %.thread43.sink.split, label %17

17:                                               ; preds = %15
  %18 = icmp sgt i32 %8, 307
  br i1 %18, label %.thread49, label %19

.thread49:                                        ; preds = %17
  store i32 307, ptr %7, align 4, !tbaa !77
  br label %25

19:                                               ; preds = %17
  %20 = icmp slt i32 %8, 197
  br i1 %20, label %.thread43, label %25

.thread43.sink.split:                             ; preds = %15, %11, %9
  %.sink = phi i32 [ -104, %9 ], [ 12, %11 ], [ -50, %15 ]
  store i32 %.sink, ptr %7, align 4, !tbaa !77
  br label %.thread43

.thread43:                                        ; preds = %.thread43.sink.split, %11, %19
  %21 = phi i32 [ %8, %19 ], [ %8, %11 ], [ %.sink, %.thread43.sink.split ]
  %.146 = phi i32 [ 0, %19 ], [ 0, %11 ], [ 1, %.thread43.sink.split ]
  %22 = mul nsw i32 %21, 398
  %23 = ashr i32 %22, 10
  %24 = sub nsw i32 -38, %23
  br label %30

25:                                               ; preds = %.thread49, %19
  %.151 = phi i32 [ 1, %.thread49 ], [ 0, %19 ]
  %26 = phi i32 [ 307, %.thread49 ], [ %8, %19 ]
  %27 = mul nuw nsw i32 %26, 48
  %28 = lshr i32 %27, 10
  %29 = add nuw nsw i32 %28, -123
  br label %30

30:                                               ; preds = %25, %.thread43
  %.145 = phi i32 [ %.146, %.thread43 ], [ %.151, %25 ]
  %31 = phi i32 [ %24, %.thread43 ], [ %29, %25 ]
  %32 = sub nsw i32 %31, %2
  %33 = load i32, ptr %1, align 4, !tbaa !77
  %.not = icmp sgt i32 %32, %33
  br i1 %.not, label %38, label %34

34:                                               ; preds = %30
  %35 = add nsw i32 %31, 20
  %36 = icmp slt i32 %35, %33
  %37 = icmp ne i32 %.145, 0
  %or.cond = or i1 %37, %36
  br i1 %or.cond, label %38, label %44

38:                                               ; preds = %34, %30
  %39 = sub nsw i32 %31, %33
  %40 = tail call i32 @llvm.abs.i32(i32 %39, i1 true)
  %41 = shl nsw i32 %2, 2
  %.not38 = icmp slt i32 %40, %41
  br i1 %.not38, label %42, label %44

42:                                               ; preds = %38
  %spec.store.select = tail call i32 @llvm.smax.i32(i32 %39, i32 -20)
  %spec.select = tail call i32 @llvm.smin.i32(i32 %spec.store.select, i32 %2)
  %43 = sub nsw i32 %31, %spec.select
  store i32 %43, ptr %1, align 4, !tbaa !77
  br label %44

44:                                               ; preds = %38, %34, %13, %42
  %.032 = phi i32 [ 1, %42 ], [ 2, %13 ], [ 0, %34 ], [ 2, %38 ]
  ret i32 %.032
}